target datalayout = "e-m:e-p270:32:32-p271:32:32-p272:64:64-i64:64-i128:128-f80:128-n8:16:32:64-S128"
target triple = "x86_64-pc-linux-gnu"

%"class.rocksdb::ThreadLocalPtr::StaticMeta" = type <{ i32, [4 x i8], %"class.rocksdb::autovector", %"struct.rocksdb::ThreadData", %"class.std::unordered_map", %"class.rocksdb::port::Mutex", i32, [4 x i8] }>
%"class.rocksdb::autovector" = type { i64, [32 x i8], ptr, %"class.std::vector" }
%"class.std::vector" = type { %"struct.std::_Vector_base" }
%"struct.std::_Vector_base" = type { %"struct.std::_Vector_base<unsigned int, std::allocator<unsigned int>>::_Vector_impl" }
%"struct.std::_Vector_base<unsigned int, std::allocator<unsigned int>>::_Vector_impl" = type { %"struct.std::_Vector_base<unsigned int, std::allocator<unsigned int>>::_Vector_impl_data" }
%"struct.std::_Vector_base<unsigned int, std::allocator<unsigned int>>::_Vector_impl_data" = type { ptr, ptr, ptr }
%"struct.rocksdb::ThreadData" = type { %"class.std::vector.0", ptr, ptr, ptr }
%"class.std::vector.0" = type { %"struct.std::_Vector_base.1" }
%"struct.std::_Vector_base.1" = type { %"struct.std::_Vector_base<rocksdb::Entry, std::allocator<rocksdb::Entry>>::_Vector_impl" }
%"struct.std::_Vector_base<rocksdb::Entry, std::allocator<rocksdb::Entry>>::_Vector_impl" = type { %"struct.std::_Vector_base<rocksdb::Entry, std::allocator<rocksdb::Entry>>::_Vector_impl_data" }
%"struct.std::_Vector_base<rocksdb::Entry, std::allocator<rocksdb::Entry>>::_Vector_impl_data" = type { ptr, ptr, ptr }
%"class.std::unordered_map" = type { %"class.std::_Hashtable" }
%"class.std::_Hashtable" = type { ptr, i64, %"struct.std::__detail::_Hash_node_base", i64, %"struct.std::__detail::_Prime_rehash_policy", ptr }
%"struct.std::__detail::_Hash_node_base" = type { ptr }
%"struct.std::__detail::_Prime_rehash_policy" = type { float, i64 }
%"class.rocksdb::port::Mutex" = type { %union.pthread_mutex_t }
%union.pthread_mutex_t = type { %struct.__pthread_mutex_s }
%struct.__pthread_mutex_s = type { i32, i32, i32, i32, i32, i16, i16, %struct.__pthread_internal_list }
%struct.__pthread_internal_list = type { ptr, ptr }
%"class.rocksdb::MutexLock" = type { ptr }
%"class.rocksdb::autovector<unsigned int>::iterator_impl.26" = type { ptr, i64 }

@_ZZN7rocksdb14ThreadLocalPtr8InstanceEvE4inst = internal global ptr null, align 8
@_ZGVZN7rocksdb14ThreadLocalPtr8InstanceEvE4inst = internal global i64 0, align 8
@_ZN7rocksdb14ThreadLocalPtr10StaticMetaC1Ev = unnamed_addr alias void (ptr), ptr @_ZN7rocksdb14ThreadLocalPtr10StaticMetaC2Ev

; Function Attrs: mustprogress nounwind uwtable
define linkonce_odr noundef nonnull align 4 dereferenceable(4) ptr @_ZNKSt6vectorIjSaIjEEixEm(ptr noundef nonnull align 8 dereferenceable(24) %0, i64 noundef %1) #6 comdat align 2 {
  %3 = alloca ptr, align 8
  %4 = alloca i64, align 8
  store ptr %0, ptr %3, align 8, !tbaa !173
  store i64 %1, ptr %4, align 8, !tbaa !78
  %5 = load ptr, ptr %3, align 8
  %6 = getelementptr inbounds nuw %"struct.std::_Vector_base", ptr %5, i32 0, i32 0
  %7 = getelementptr inbounds nuw %"struct.std::_Vector_base<unsigned int, std::allocator<unsigned int>>::_Vector_impl_data", ptr %6, i32 0, i32 0
  %8 = load ptr, ptr %7, align 8, !tbaa !183
  %9 = load i64, ptr %4, align 8, !tbaa !78
  %10 = getelementptr inbounds nuw i32, ptr %8, i64 %9
  ret ptr %10
}

; Function Attrs: mustprogress nounwind uwtable
define linkonce_odr noundef nonnull align 4 dereferenceable(4) ptr @_ZNK7rocksdb10autovectorIjLm8EEixEm(ptr noundef nonnull align 8 dereferenceable(72) %0, i64 noundef %1) #6 comdat align 2 {
  %3 = alloca ptr, align 8
  %4 = alloca ptr, align 8
  %5 = alloca i64, align 8
  store ptr %0, ptr %4, align 8, !tbaa !68
  store i64 %1, ptr %5, align 8, !tbaa !78
  %6 = load ptr, ptr %4, align 8
  %7 = load i64, ptr %5, align 8, !tbaa !78
  %8 = icmp ult i64 %7, 8
  br i1 %8, label %9, label %14

9:                                                ; preds = %2
  %10 = getelementptr inbounds nuw %"class.rocksdb::autovector", ptr %6, i32 0, i32 2
  %11 = load ptr, ptr %10, align 8, !tbaa !71
  %12 = load i64, ptr %5, align 8, !tbaa !78
  %13 = getelementptr inbounds nuw i32, ptr %11, i64 %12
  store ptr %13, ptr %3, align 8
  br label %19

14:                                               ; preds = %2
  %15 = getelementptr inbounds nuw %"class.rocksdb::autovector", ptr %6, i32 0, i32 3
  %16 = load i64, ptr %5, align 8, !tbaa !78
  %17 = sub i64 %16, 8
  %18 = call noundef nonnull align 4 dereferenceable(4) ptr @_ZNKSt6vectorIjSaIjEEixEm(ptr noundef nonnull align 8 dereferenceable(24) %15, i64 noundef %17) #1
  store ptr %18, ptr %3, align 8
  br label %19

19:                                               ; preds = %14, %9
  %20 = load ptr, ptr %3, align 8
  ret ptr %20
}

; Function Attrs: mustprogress nounwind uwtable
define linkonce_odr void @_ZN7rocksdb10autovectorIjLm8EE13iterator_implIKS1_KjEC2EPS3_m(ptr noundef nonnull align 8 dereferenceable(16) %0, ptr noundef %1, i64 noundef %2) unnamed_addr #6 comdat align 2 {
  %4 = alloca ptr, align 8
  %5 = alloca ptr, align 8
  %6 = alloca i64, align 8
  store ptr %0, ptr %4, align 8, !tbaa !264
  store ptr %1, ptr %5, align 8, !tbaa !68
  store i64 %2, ptr %6, align 8, !tbaa !78
  %7 = load ptr, ptr %4, align 8
  %8 = getelementptr inbounds nuw %"class.rocksdb::autovector<unsigned int>::iterator_impl.26", ptr %7, i32 0, i32 0
  %9 = load ptr, ptr %5, align 8, !tbaa !68
  store ptr %9, ptr %8, align 8, !tbaa !266
  %10 = getelementptr inbounds nuw %"class.rocksdb::autovector<unsigned int>::iterator_impl.26", ptr %7, i32 0, i32 1
  %11 = load i64, ptr %6, align 8, !tbaa !78
  store i64 %11, ptr %10, align 8, !tbaa !268
  ret void
}

; Function Attrs: mustprogress nounwind uwtable
define linkonce_odr noundef i64 @_ZNKSt6vectorIjSaIjEE4sizeEv(ptr noundef nonnull align 8 dereferenceable(24) %0) #6 comdat align 2 {
  %2 = alloca ptr, align 8
  store ptr %0, ptr %2, align 8, !tbaa !173
  %3 = load ptr, ptr %2, align 8
  %4 = getelementptr inbounds nuw %"struct.std::_Vector_base", ptr %3, i32 0, i32 0
  %5 = getelementptr inbounds nuw %"struct.std::_Vector_base<unsigned int, std::allocator<unsigned int>>::_Vector_impl_data", ptr %4, i32 0, i32 1
  %6 = load ptr, ptr %5, align 8, !tbaa !184
  %7 = getelementptr inbounds nuw %"struct.std::_Vector_base", ptr %3, i32 0, i32 0
  %8 = getelementptr inbounds nuw %"struct.std::_Vector_base<unsigned int, std::allocator<unsigned int>>::_Vector_impl_data", ptr %7, i32 0, i32 0
  %9 = load ptr, ptr %8, align 8, !tbaa !183
  %10 = ptrtoint ptr %6 to i64
  %11 = ptrtoint ptr %9 to i64
  %12 = sub i64 %10, %11
  %13 = sdiv exact i64 %12, 4
  ret i64 %13
}

; Function Attrs: mustprogress nounwind uwtable
define linkonce_odr void @_ZN7rocksdb10autovectorIjLm8EE13iterator_implIKS1_KjED2Ev(ptr noundef nonnull align 8 dereferenceable(16) %0) unnamed_addr #6 comdat align 2 {
  %2 = alloca ptr, align 8
  store ptr %0, ptr %2, align 8, !tbaa !264
  ret void
}

; Function Attrs: mustprogress uwtable
define linkonce_odr noundef nonnull align 4 dereferenceable(4) ptr @_ZNK7rocksdb10autovectorIjLm8EE13iterator_implIKS1_KjEdeEv(ptr noundef nonnull align 8 dereferenceable(16) %0) #0 comdat align 2 {
  %2 = alloca ptr, align 8
  store ptr %0, ptr %2, align 8, !tbaa !264
  %3 = load ptr, ptr %2, align 8
  %4 = getelementptr inbounds nuw %"class.rocksdb::autovector<unsigned int>::iterator_impl.26", ptr %3, i32 0, i32 0
  %5 = load ptr, ptr %4, align 8, !tbaa !266
  %6 = getelementptr inbounds nuw %"class.rocksdb::autovector<unsigned int>::iterator_impl.26", ptr %3, i32 0, i32 1
  %7 = load i64, ptr %6, align 8, !tbaa !268
  %8 = call noundef nonnull align 4 dereferenceable(4) ptr @_ZNK7rocksdb10autovectorIjLm8EEixEm(ptr noundef nonnull align 8 dereferenceable(72) %5, i64 noundef %7)
  ret ptr %8
}

; Function Attrs: mustprogress uwtable
define linkonce_odr void @_ZNK7rocksdb10autovectorIjLm8EE13iterator_implIKS1_KjEmiEl(ptr dead_on_unwind noalias writable sret(%"class.rocksdb::autovector<unsigned int>::iterator_impl.26") align 8 %0, ptr noundef nonnull align 8 dereferenceable(16) %1, i64 noundef %2) #0 comdat align 2 {
  %4 = alloca ptr, align 8
  %5 = alloca ptr, align 8
  %6 = alloca i64, align 8
  store ptr %0, ptr %4, align 8
  store ptr %1, ptr %5, align 8, !tbaa !264
  store i64 %2, ptr %6, align 8, !tbaa !78
  %7 = load ptr, ptr %5, align 8
  %8 = getelementptr inbounds nuw %"class.rocksdb::autovector<unsigned int>::iterator_impl.26", ptr %7, i32 0, i32 0
  %9 = load ptr, ptr %8, align 8, !tbaa !266
  %10 = getelementptr inbounds nuw %"class.rocksdb::autovector<unsigned int>::iterator_impl.26", ptr %7, i32 0, i32 1
  %11 = load i64, ptr %10, align 8, !tbaa !268
  %12 = load i64, ptr %6, align 8, !tbaa !78
  %13 = sub i64 %11, %12
  call void @_ZN7rocksdb10autovectorIjLm8EE13iterator_implIKS1_KjEC2EPS3_m(ptr noundef nonnull align 8 dereferenceable(16) %0, ptr noundef %9, i64 noundef %13)
  ret void
}

; Function Attrs: mustprogress uwtable
define linkonce_odr void @_ZNK7rocksdb10autovectorIjLm8EE3endEv(ptr dead_on_unwind noalias writable sret(%"class.rocksdb::autovector<unsigned int>::iterator_impl.26") align 8 %0, ptr noundef nonnull align 8 dereferenceable(72) %1) #0 comdat align 2 {
  %3 = alloca ptr, align 8
  %4 = alloca ptr, align 8
  store ptr %0, ptr %3, align 8
  store ptr %1, ptr %4, align 8, !tbaa !68
  %5 = load ptr, ptr %4, align 8
  %6 = call noundef i64 @_ZNK7rocksdb10autovectorIjLm8EE4sizeEv(ptr noundef nonnull align 8 dereferenceable(72) %5)
  call void @_ZN7rocksdb10autovectorIjLm8EE13iterator_implIKS1_KjEC2EPS3_m(ptr noundef nonnull align 8 dereferenceable(16) %0, ptr noundef %5, i64 noundef %6)
  ret void
}

; Function Attrs: mustprogress nounwind uwtable
define linkonce_odr noundef i64 @_ZNK7rocksdb10autovectorIjLm8EE4sizeEv(ptr noundef nonnull align 8 dereferenceable(72) %0) #6 comdat align 2 {
  %2 = alloca ptr, align 8
  store ptr %0, ptr %2, align 8, !tbaa !68
  %3 = load ptr, ptr %2, align 8
  %4 = getelementptr inbounds nuw %"class.rocksdb::autovector", ptr %3, i32 0, i32 0
  %5 = load i64, ptr %4, align 8, !tbaa !70
  %6 = getelementptr inbounds nuw %"class.rocksdb::autovector", ptr %3, i32 0, i32 3
  %7 = call noundef i64 @_ZNKSt6vectorIjSaIjEE4sizeEv(ptr noundef nonnull align 8 dereferenceable(24) %6) #1
  %8 = add i64 %5, %7
  ret i64 %8
}

; Function Attrs: mustprogress uwtable
define noundef ptr @_ZN7rocksdb14ThreadLocalPtr8InstanceEv() #0 align 2 personality ptr @__gxx_personality_v0 {
  %1 = alloca ptr, align 8
  %2 = alloca i32, align 4
  %3 = load atomic i8, ptr @_ZGVZN7rocksdb14ThreadLocalPtr8InstanceEvE4inst acquire, align 8
  %4 = icmp eq i8 %3, 0
  br i1 %4, label %5, label %12, !prof !4

5:                                                ; preds = %0
  %6 = call i32 @__cxa_guard_acquire(ptr @_ZGVZN7rocksdb14ThreadLocalPtr8InstanceEvE4inst) #1
  %7 = icmp ne i32 %6, 0
  br i1 %7, label %8, label %12

8:                                                ; preds = %5
  %9 = invoke noalias noundef nonnull ptr @_Znwm(i64 noundef 232) #19
          to label %10 unwind label %14

10:                                               ; preds = %8
  invoke void @_ZN7rocksdb14ThreadLocalPtr10StaticMetaC1Ev(ptr noundef nonnull align 8 dereferenceable(228) %9)
          to label %11 unwind label %18

11:                                               ; preds = %10
  store ptr %9, ptr @_ZZN7rocksdb14ThreadLocalPtr8InstanceEvE4inst, align 8, !tbaa !5
  call void @__cxa_guard_release(ptr @_ZGVZN7rocksdb14ThreadLocalPtr8InstanceEvE4inst) #1
  br label %12

12:                                               ; preds = %11, %5, %0
  %13 = load ptr, ptr @_ZZN7rocksdb14ThreadLocalPtr8InstanceEvE4inst, align 8, !tbaa !5
  ret ptr %13

14:                                               ; preds = %8
  %15 = landingpad { ptr, i32 }
          cleanup
  %16 = extractvalue { ptr, i32 } %15, 0
  store ptr %16, ptr %1, align 8
  %17 = extractvalue { ptr, i32 } %15, 1
  store i32 %17, ptr %2, align 4
  br label %22

18:                                               ; preds = %10
  %19 = landingpad { ptr, i32 }
          cleanup
  %20 = extractvalue { ptr, i32 } %19, 0
  store ptr %20, ptr %1, align 8
  %21 = extractvalue { ptr, i32 } %19, 1
  store i32 %21, ptr %2, align 4
  call void @_ZdlPvm(ptr noundef %9, i64 noundef 232) #20
  br label %22

22:                                               ; preds = %18, %14
  call void @__cxa_guard_abort(ptr @_ZGVZN7rocksdb14ThreadLocalPtr8InstanceEvE4inst) #1
  br label %23

23:                                               ; preds = %22
  %24 = load ptr, ptr %1, align 8
  %25 = load i32, ptr %2, align 4
  %26 = insertvalue { ptr, i32 } poison, ptr %24, 0
  %27 = insertvalue { ptr, i32 } %26, i32 %25, 1
  resume { ptr, i32 } %27
}

; Function Attrs: mustprogress nounwind uwtable
define linkonce_odr void @_ZN7rocksdb9MutexLockD2Ev(ptr noundef nonnull align 8 dereferenceable(8) %0) unnamed_addr #6 comdat align 2 personality ptr @__gxx_personality_v0 {
  %2 = alloca ptr, align 8
  store ptr %0, ptr %2, align 8, !tbaa !43
  %3 = load ptr, ptr %2, align 8
  %4 = getelementptr inbounds nuw %"class.rocksdb::MutexLock", ptr %3, i32 0, i32 0
  %5 = load ptr, ptr %4, align 8, !tbaa !47
  invoke void @_ZN7rocksdb4port5Mutex6UnlockEv(ptr noundef nonnull align 8 dereferenceable(40) %5)
          to label %6 unwind label %7

6:                                                ; preds = %1
  ret void

7:                                                ; preds = %1
  %8 = landingpad { ptr, i32 }
          catch ptr null
  %9 = extractvalue { ptr, i32 } %8, 0
  call void @__clang_call_terminate(ptr %9) #21
  unreachable
}

; Function Attrs: mustprogress uwtable
define linkonce_odr noundef nonnull align 4 dereferenceable(4) ptr @_ZNK7rocksdb10autovectorIjLm8EE4backEv(ptr noundef nonnull align 8 dereferenceable(72) %0) #0 comdat align 2 personality ptr @__gxx_personality_v0 {
  %2 = alloca ptr, align 8
  %3 = alloca %"class.rocksdb::autovector<unsigned int>::iterator_impl.26", align 8
  %4 = alloca %"class.rocksdb::autovector<unsigned int>::iterator_impl.26", align 8
  %5 = alloca ptr, align 8
  %6 = alloca i32, align 4
  store ptr %0, ptr %2, align 8, !tbaa !68
  %7 = load ptr, ptr %2, align 8
  call void @llvm.lifetime.start.p0(i64 16, ptr %3) #1
  call void @llvm.lifetime.start.p0(i64 16, ptr %4) #1
  call void @_ZNK7rocksdb10autovectorIjLm8EE3endEv(ptr dead_on_unwind writable sret(%"class.rocksdb::autovector<unsigned int>::iterator_impl.26") align 8 %4, ptr noundef nonnull align 8 dereferenceable(72) %7)
  invoke void @_ZNK7rocksdb10autovectorIjLm8EE13iterator_implIKS1_KjEmiEl(ptr dead_on_unwind writable sret(%"class.rocksdb::autovector<unsigned int>::iterator_impl.26") align 8 %3, ptr noundef nonnull align 8 dereferenceable(16) %4, i64 noundef 1)
          to label %8 unwind label %11

8:                                                ; preds = %1
  %9 = invoke noundef nonnull align 4 dereferenceable(4) ptr @_ZNK7rocksdb10autovectorIjLm8EE13iterator_implIKS1_KjEdeEv(ptr noundef nonnull align 8 dereferenceable(16) %3)
          to label %10 unwind label %15

10:                                               ; preds = %8
  call void @_ZN7rocksdb10autovectorIjLm8EE13iterator_implIKS1_KjED2Ev(ptr noundef nonnull align 8 dereferenceable(16) %3) #1
  call void @_ZN7rocksdb10autovectorIjLm8EE13iterator_implIKS1_KjED2Ev(ptr noundef nonnull align 8 dereferenceable(16) %4) #1
  call void @llvm.lifetime.end.p0(i64 16, ptr %4) #1
  call void @llvm.lifetime.end.p0(i64 16, ptr %3) #1
  ret ptr %9

11:                                               ; preds = %1
  %12 = landingpad { ptr, i32 }
          cleanup
  %13 = extractvalue { ptr, i32 } %12, 0
  store ptr %13, ptr %5, align 8
  %14 = extractvalue { ptr, i32 } %12, 1
  store i32 %14, ptr %6, align 4
  br label %19

15:                                               ; preds = %8
  %16 = landingpad { ptr, i32 }
          cleanup
  %17 = extractvalue { ptr, i32 } %16, 0
  store ptr %17, ptr %5, align 8
  %18 = extractvalue { ptr, i32 } %16, 1
  store i32 %18, ptr %6, align 4
  call void @_ZN7rocksdb10autovectorIjLm8EE13iterator_implIKS1_KjED2Ev(ptr noundef nonnull align 8 dereferenceable(16) %3) #1
  br label %19

19:                                               ; preds = %15, %11
  call void @_ZN7rocksdb10autovectorIjLm8EE13iterator_implIKS1_KjED2Ev(ptr noundef nonnull align 8 dereferenceable(16) %4) #1
  call void @llvm.lifetime.end.p0(i64 16, ptr %4) #1
  call void @llvm.lifetime.end.p0(i64 16, ptr %3) #1
  br label %20

20:                                               ; preds = %19
  %21 = load ptr, ptr %5, align 8
  %22 = load i32, ptr %6, align 4
  %23 = insertvalue { ptr, i32 } poison, ptr %21, 0
  %24 = insertvalue { ptr, i32 } %23, i32 %22, 1
  resume { ptr, i32 } %24
}

; Function Attrs: mustprogress uwtable
define linkonce_odr noundef zeroext i1 @_ZNK7rocksdb10autovectorIjLm8EE5emptyEv(ptr noundef nonnull align 8 dereferenceable(72) %0) #0 comdat align 2 {
  %2 = alloca ptr, align 8
  store ptr %0, ptr %2, align 8, !tbaa !68
  %3 = load ptr, ptr %2, align 8
  %4 = call noundef i64 @_ZNK7rocksdb10autovectorIjLm8EE4sizeEv(ptr noundef nonnull align 8 dereferenceable(72) %3)
  %5 = icmp eq i64 %4, 0
  ret i1 %5
}

; Function Attrs: mustprogress uwtable
define linkonce_odr void @_ZN7rocksdb9MutexLockC2EPNS_4port5MutexE(ptr noundef nonnull align 8 dereferenceable(8) %0, ptr noundef %1) unnamed_addr #0 comdat align 2 {
  %3 = alloca ptr, align 8
  %4 = alloca ptr, align 8
  store ptr %0, ptr %3, align 8, !tbaa !43
  store ptr %1, ptr %4, align 8, !tbaa !45
  %5 = load ptr, ptr %3, align 8
  %6 = getelementptr inbounds nuw %"class.rocksdb::MutexLock", ptr %5, i32 0, i32 0
  %7 = load ptr, ptr %4, align 8, !tbaa !45
  store ptr %7, ptr %6, align 8, !tbaa !47
  %8 = getelementptr inbounds nuw %"class.rocksdb::MutexLock", ptr %5, i32 0, i32 0
  %9 = load ptr, ptr %8, align 8, !tbaa !47
  call void @_ZN7rocksdb4port5Mutex4LockEv(ptr noundef nonnull align 8 dereferenceable(40) %9)
  ret void
}

; Function Attrs: mustprogress uwtable
define noundef ptr @_ZN7rocksdb14ThreadLocalPtr10StaticMeta5MutexEv() #0 align 2 {
  %1 = call noundef ptr @_ZN7rocksdb14ThreadLocalPtr8InstanceEv()
  %2 = getelementptr inbounds nuw %"class.rocksdb::ThreadLocalPtr::StaticMeta", ptr %1, i32 0, i32 5
  ret ptr %2
}

; Function Attrs: mustprogress uwtable
define noundef i32 @_ZNK7rocksdb14ThreadLocalPtr10StaticMeta6PeekIdEv(ptr noundef nonnull align 8 dereferenceable(228) %0) #0 align 2 personality ptr @__gxx_personality_v0 {
  %2 = alloca i32, align 4
  %3 = alloca ptr, align 8
  %4 = alloca %"class.rocksdb::MutexLock", align 8
  %5 = alloca ptr, align 8
  %6 = alloca i32, align 4
  %7 = alloca i32, align 4
  store ptr %0, ptr %3, align 8, !tbaa !5
  %8 = load ptr, ptr %3, align 8
  call void @llvm.lifetime.start.p0(i64 8, ptr %4) #1
  %9 = call noundef ptr @_ZN7rocksdb14ThreadLocalPtr10StaticMeta5MutexEv()
  call void @_ZN7rocksdb9MutexLockC2EPNS_4port5MutexE(ptr noundef nonnull align 8 dereferenceable(8) %4, ptr noundef %9)
  %10 = getelementptr inbounds nuw %"class.rocksdb::ThreadLocalPtr::StaticMeta", ptr %8, i32 0, i32 2
  %11 = invoke noundef zeroext i1 @_ZNK7rocksdb10autovectorIjLm8EE5emptyEv(ptr noundef nonnull align 8 dereferenceable(72) %10)
          to label %12 unwind label %18

12:                                               ; preds = %1
  br i1 %11, label %22, label %13

13:                                               ; preds = %12
  %14 = getelementptr inbounds nuw %"class.rocksdb::ThreadLocalPtr::StaticMeta", ptr %8, i32 0, i32 2
  %15 = invoke noundef nonnull align 4 dereferenceable(4) ptr @_ZNK7rocksdb10autovectorIjLm8EE4backEv(ptr noundef nonnull align 8 dereferenceable(72) %14)
          to label %16 unwind label %18

16:                                               ; preds = %13
  %17 = load i32, ptr %15, align 4, !tbaa !39
  store i32 %17, ptr %2, align 4
  store i32 1, ptr %7, align 4
  br label %25

18:                                               ; preds = %13, %1
  %19 = landingpad { ptr, i32 }
          cleanup
  %20 = extractvalue { ptr, i32 } %19, 0
  store ptr %20, ptr %5, align 8
  %21 = extractvalue { ptr, i32 } %19, 1
  store i32 %21, ptr %6, align 4
  call void @_ZN7rocksdb9MutexLockD2Ev(ptr noundef nonnull align 8 dereferenceable(8) %4) #1
  call void @llvm.lifetime.end.p0(i64 8, ptr %4) #1
  br label %27

22:                                               ; preds = %12
  %23 = getelementptr inbounds nuw %"class.rocksdb::ThreadLocalPtr::StaticMeta", ptr %8, i32 0, i32 0
  %24 = load i32, ptr %23, align 8, !tbaa !61
  store i32 %24, ptr %2, align 4
  store i32 1, ptr %7, align 4
  br label %25

25:                                               ; preds = %22, %16
  call void @_ZN7rocksdb9MutexLockD2Ev(ptr noundef nonnull align 8 dereferenceable(8) %4) #1
  call void @llvm.lifetime.end.p0(i64 8, ptr %4) #1
  %26 = load i32, ptr %2, align 4
  ret i32 %26

27:                                               ; preds = %18
  %28 = load ptr, ptr %5, align 8
  %29 = load i32, ptr %6, align 4
  %30 = insertvalue { ptr, i32 } poison, ptr %28, 0
  %31 = insertvalue { ptr, i32 } %30, i32 %29, 1
  resume { ptr, i32 } %31
}