; Function Attrs: mustprogress uwtable
define noundef i32 @_ZNK7rocksdb14ThreadLocalPtr10StaticMeta6PeekIdEv(ptr noundef nonnull readonly align 8 captures(none) dereferenceable(228) %0) local_unnamed_addr #0 align 2 personality ptr @__gxx_personality_v0 {
  %2 = load atomic i8, ptr @_ZGVZN7rocksdb14ThreadLocalPtr8InstanceEvE4inst acquire, align 8
  %3 = icmp eq i8 %2, 0
  br i1 %3, label %4, label %15, !prof !4

4:                                                ; preds = %1
  %5 = tail call i32 @__cxa_guard_acquire(ptr nonnull @_ZGVZN7rocksdb14ThreadLocalPtr8InstanceEvE4inst) #19
  %.not.i.i = icmp eq i32 %5, 0
  br i1 %.not.i.i, label %15, label %6

6:                                                ; preds = %4
  %7 = invoke noalias noundef nonnull dereferenceable(232) ptr @_Znwm(i64 noundef 232) #20
          to label %8 unwind label %10

8:                                                ; preds = %6
  invoke void @_ZN7rocksdb14ThreadLocalPtr10StaticMetaC1Ev(ptr noundef nonnull align 8 dereferenceable(228) %7)
          to label %9 unwind label %12

9:                                                ; preds = %8
  store ptr %7, ptr @_ZZN7rocksdb14ThreadLocalPtr8InstanceEvE4inst, align 8, !tbaa !5
  tail call void @__cxa_guard_release(ptr nonnull @_ZGVZN7rocksdb14ThreadLocalPtr8InstanceEvE4inst) #19
  br label %15

10:                                               ; preds = %6
  %11 = landingpad { ptr, i32 }
          cleanup
  br label %14

12:                                               ; preds = %8
  %13 = landingpad { ptr, i32 }
          cleanup
  tail call void @_ZdlPvm(ptr noundef nonnull %7, i64 noundef 232) #21
  br label %14

14:                                               ; preds = %12, %10
  %.pn.i.i = phi { ptr, i32 } [ %13, %12 ], [ %11, %10 ]
  tail call void @__cxa_guard_abort(ptr nonnull @_ZGVZN7rocksdb14ThreadLocalPtr8InstanceEvE4inst) #19
  resume { ptr, i32 } %.pn.i.i

15:                                               ; preds = %9, %4, %1
  %16 = load ptr, ptr @_ZZN7rocksdb14ThreadLocalPtr8InstanceEvE4inst, align 8, !tbaa !5
  %17 = getelementptr inbounds nuw i8, ptr %16, i64 184
  tail call void @_ZN7rocksdb4port5Mutex4LockEv(ptr noundef nonnull align 8 dereferenceable(40) %17)
  %18 = getelementptr inbounds nuw i8, ptr %0, i64 8
  %19 = load i64, ptr %18, align 8, !tbaa !54
  %20 = getelementptr inbounds nuw i8, ptr %0, i64 56
  %21 = getelementptr inbounds nuw i8, ptr %0, i64 64
  %22 = load ptr, ptr %21, align 8, !tbaa !67
  %23 = load ptr, ptr %20, align 8, !tbaa !66
  %24 = ptrtoint ptr %22 to i64
  %25 = ptrtoint ptr %23 to i64
  %26 = sub i64 %24, %25
  %27 = ashr exact i64 %26, 2
  %28 = sub i64 0, %19
  %29 = icmp eq i64 %27, %28
  br i1 %29, label %39, label %30

30:                                               ; preds = %15
  %31 = add i64 %19, -1
  %32 = add i64 %31, %27
  %33 = icmp ult i64 %32, 8
  %34 = getelementptr inbounds nuw i8, ptr %0, i64 48
  %35 = load ptr, ptr %34, align 8
  %36 = getelementptr inbounds nuw i32, ptr %35, i64 %32
  %37 = getelementptr i32, ptr %23, i64 %32
  %38 = getelementptr i8, ptr %37, i64 -32
  %.0.i.i.i = select i1 %33, ptr %36, ptr %38
  br label %39

39:                                               ; preds = %30, %15
  %.0.in = phi ptr [ %.0.i.i.i, %30 ], [ %0, %15 ]
  %.0 = load i32, ptr %.0.in, align 4, !tbaa !44
  invoke void @_ZN7rocksdb4port5Mutex6UnlockEv(ptr noundef nonnull align 8 dereferenceable(40) %17)
          to label %_ZN7rocksdb9MutexLockD2Ev.exit3 unwind label %40

40:                                               ; preds = %39
  %41 = landingpad { ptr, i32 }
          catch ptr null
  %42 = extractvalue { ptr, i32 } %41, 0
  tail call void @__clang_call_terminate(ptr %42) #22
  unreachable

_ZN7rocksdb9MutexLockD2Ev.exit3:                  ; preds = %39
  ret i32 %.0
}